
GccApplication3.elf:     file format elf32-avr

Sections:
Idx Name          Size      VMA       LMA       File off  Algn
  0 .data         00000000  00800200  00800200  0000069c  2**0
                  CONTENTS, ALLOC, LOAD, DATA
  1 .text         00000628  00000000  00000000  00000074  2**1
                  CONTENTS, ALLOC, LOAD, READONLY, CODE
  2 .bss          00000884  00800200  00800200  0000069c  2**0
                  ALLOC
  3 .comment      00000030  00000000  00000000  0000069c  2**0
                  CONTENTS, READONLY
  4 .note.gnu.avr.deviceinfo 00000040  00000000  00000000  000006cc  2**2
                  CONTENTS, READONLY
  5 .debug_aranges 000000a0  00000000  00000000  00000710  2**3
                  CONTENTS, READONLY, DEBUGGING
  6 .debug_info   000006ae  00000000  00000000  000007b0  2**0
                  CONTENTS, READONLY, DEBUGGING
  7 .debug_abbrev 000002c0  00000000  00000000  00000e5e  2**0
                  CONTENTS, READONLY, DEBUGGING
  8 .debug_line   00000505  00000000  00000000  0000111e  2**0
                  CONTENTS, READONLY, DEBUGGING
  9 .debug_frame  00000124  00000000  00000000  00001624  2**2
                  CONTENTS, READONLY, DEBUGGING
 10 .debug_str    00000340  00000000  00000000  00001748  2**0
                  CONTENTS, READONLY, DEBUGGING
 11 .debug_loc    0000047c  00000000  00000000  00001a88  2**0
                  CONTENTS, READONLY, DEBUGGING
 12 .debug_ranges 00000070  00000000  00000000  00001f04  2**0
                  CONTENTS, READONLY, DEBUGGING

Disassembly of section .text:

00000000 <__vectors>:
   0:	71 c0       	rjmp	.+226    	; 0xe4 <__ctors_end>
   2:	00 00       	nop
   4:	81 c0       	rjmp	.+258    	; 0x108 <__bad_interrupt>
   6:	00 00       	nop
   8:	7f c0       	rjmp	.+254    	; 0x108 <__bad_interrupt>
   a:	00 00       	nop
   c:	7d c0       	rjmp	.+250    	; 0x108 <__bad_interrupt>
   e:	00 00       	nop
  10:	7b c0       	rjmp	.+246    	; 0x108 <__bad_interrupt>
  12:	00 00       	nop
  14:	79 c0       	rjmp	.+242    	; 0x108 <__bad_interrupt>
  16:	00 00       	nop
  18:	77 c0       	rjmp	.+238    	; 0x108 <__bad_interrupt>
  1a:	00 00       	nop
  1c:	75 c0       	rjmp	.+234    	; 0x108 <__bad_interrupt>
  1e:	00 00       	nop
  20:	73 c0       	rjmp	.+230    	; 0x108 <__bad_interrupt>
  22:	00 00       	nop
  24:	71 c0       	rjmp	.+226    	; 0x108 <__bad_interrupt>
  26:	00 00       	nop
  28:	6f c0       	rjmp	.+222    	; 0x108 <__bad_interrupt>
  2a:	00 00       	nop
  2c:	6d c0       	rjmp	.+218    	; 0x108 <__bad_interrupt>
  2e:	00 00       	nop
  30:	6b c0       	rjmp	.+214    	; 0x108 <__bad_interrupt>
  32:	00 00       	nop
  34:	69 c0       	rjmp	.+210    	; 0x108 <__bad_interrupt>
  36:	00 00       	nop
  38:	67 c0       	rjmp	.+206    	; 0x108 <__bad_interrupt>
  3a:	00 00       	nop
  3c:	65 c0       	rjmp	.+202    	; 0x108 <__bad_interrupt>
  3e:	00 00       	nop
  40:	63 c0       	rjmp	.+198    	; 0x108 <__bad_interrupt>
  42:	00 00       	nop
  44:	d4 c2       	rjmp	.+1448   	; 0x5ee <__vector_17>
  46:	00 00       	nop
  48:	5f c0       	rjmp	.+190    	; 0x108 <__bad_interrupt>
  4a:	00 00       	nop
  4c:	5d c0       	rjmp	.+186    	; 0x108 <__bad_interrupt>
  4e:	00 00       	nop
  50:	5b c0       	rjmp	.+182    	; 0x108 <__bad_interrupt>
  52:	00 00       	nop
  54:	59 c0       	rjmp	.+178    	; 0x108 <__bad_interrupt>
  56:	00 00       	nop
  58:	57 c0       	rjmp	.+174    	; 0x108 <__bad_interrupt>
  5a:	00 00       	nop
  5c:	55 c0       	rjmp	.+170    	; 0x108 <__bad_interrupt>
  5e:	00 00       	nop
  60:	53 c0       	rjmp	.+166    	; 0x108 <__bad_interrupt>
  62:	00 00       	nop
  64:	51 c0       	rjmp	.+162    	; 0x108 <__bad_interrupt>
  66:	00 00       	nop
  68:	4f c0       	rjmp	.+158    	; 0x108 <__bad_interrupt>
  6a:	00 00       	nop
  6c:	4d c0       	rjmp	.+154    	; 0x108 <__bad_interrupt>
  6e:	00 00       	nop
  70:	4b c0       	rjmp	.+150    	; 0x108 <__bad_interrupt>
  72:	00 00       	nop
  74:	49 c0       	rjmp	.+146    	; 0x108 <__bad_interrupt>
  76:	00 00       	nop
  78:	47 c0       	rjmp	.+142    	; 0x108 <__bad_interrupt>
  7a:	00 00       	nop
  7c:	45 c0       	rjmp	.+138    	; 0x108 <__bad_interrupt>
  7e:	00 00       	nop
  80:	43 c0       	rjmp	.+134    	; 0x108 <__bad_interrupt>
  82:	00 00       	nop
  84:	41 c0       	rjmp	.+130    	; 0x108 <__bad_interrupt>
  86:	00 00       	nop
  88:	3f c0       	rjmp	.+126    	; 0x108 <__bad_interrupt>
  8a:	00 00       	nop
  8c:	3d c0       	rjmp	.+122    	; 0x108 <__bad_interrupt>
  8e:	00 00       	nop
  90:	3b c0       	rjmp	.+118    	; 0x108 <__bad_interrupt>
  92:	00 00       	nop
  94:	39 c0       	rjmp	.+114    	; 0x108 <__bad_interrupt>
  96:	00 00       	nop
  98:	37 c0       	rjmp	.+110    	; 0x108 <__bad_interrupt>
  9a:	00 00       	nop
  9c:	35 c0       	rjmp	.+106    	; 0x108 <__bad_interrupt>
  9e:	00 00       	nop
  a0:	33 c0       	rjmp	.+102    	; 0x108 <__bad_interrupt>
  a2:	00 00       	nop
  a4:	31 c0       	rjmp	.+98     	; 0x108 <__bad_interrupt>
  a6:	00 00       	nop
  a8:	2f c0       	rjmp	.+94     	; 0x108 <__bad_interrupt>
  aa:	00 00       	nop
  ac:	2d c0       	rjmp	.+90     	; 0x108 <__bad_interrupt>
  ae:	00 00       	nop
  b0:	2b c0       	rjmp	.+86     	; 0x108 <__bad_interrupt>
  b2:	00 00       	nop
  b4:	29 c0       	rjmp	.+82     	; 0x108 <__bad_interrupt>
  b6:	00 00       	nop
  b8:	27 c0       	rjmp	.+78     	; 0x108 <__bad_interrupt>
  ba:	00 00       	nop
  bc:	25 c0       	rjmp	.+74     	; 0x108 <__bad_interrupt>
  be:	00 00       	nop
  c0:	23 c0       	rjmp	.+70     	; 0x108 <__bad_interrupt>
  c2:	00 00       	nop
  c4:	21 c0       	rjmp	.+66     	; 0x108 <__bad_interrupt>
  c6:	00 00       	nop
  c8:	1f c0       	rjmp	.+62     	; 0x108 <__bad_interrupt>
  ca:	00 00       	nop
  cc:	1d c0       	rjmp	.+58     	; 0x108 <__bad_interrupt>
  ce:	00 00       	nop
  d0:	1b c0       	rjmp	.+54     	; 0x108 <__bad_interrupt>
  d2:	00 00       	nop
  d4:	19 c0       	rjmp	.+50     	; 0x108 <__bad_interrupt>
  d6:	00 00       	nop
  d8:	17 c0       	rjmp	.+46     	; 0x108 <__bad_interrupt>
  da:	00 00       	nop
  dc:	15 c0       	rjmp	.+42     	; 0x108 <__bad_interrupt>
  de:	00 00       	nop
  e0:	13 c0       	rjmp	.+38     	; 0x108 <__bad_interrupt>
	...

000000e4 <__ctors_end>:
  e4:	11 24       	eor	r1, r1
  e6:	1f be       	out	0x3f, r1	; 63
  e8:	cf ef       	ldi	r28, 0xFF	; 255
  ea:	d1 e2       	ldi	r29, 0x21	; 33
  ec:	de bf       	out	0x3e, r29	; 62
  ee:	cd bf       	out	0x3d, r28	; 61
  f0:	00 e0       	ldi	r16, 0x00	; 0
  f2:	0c bf       	out	0x3c, r16	; 60

000000f4 <__do_clear_bss>:
  f4:	2a e0       	ldi	r18, 0x0A	; 10
  f6:	a0 e0       	ldi	r26, 0x00	; 0
  f8:	b2 e0       	ldi	r27, 0x02	; 2
  fa:	01 c0       	rjmp	.+2      	; 0xfe <.do_clear_bss_start>

000000fc <.do_clear_bss_loop>:
  fc:	1d 92       	st	X+, r1

000000fe <.do_clear_bss_start>:
  fe:	a4 38       	cpi	r26, 0x84	; 132
 100:	b2 07       	cpc	r27, r18
 102:	e1 f7       	brne	.-8      	; 0xfc <.do_clear_bss_loop>
 104:	7e d2       	rcall	.+1276   	; 0x602 <main>
 106:	8e c2       	rjmp	.+1308   	; 0x624 <_exit>

00000108 <__bad_interrupt>:
 108:	7b cf       	rjmp	.-266    	; 0x0 <__vectors>

0000010a <CSwitch>:
Exit_Kernel:
        /* 
          * This is the "top" half of CSwitch(), generally called by the kernel.
          * Assume I = 0, i.e., all interrupts are disabled.
          */
        SAVECTX
 10a:	0f 92       	push	r0
 10c:	1f 92       	push	r1
 10e:	2f 92       	push	r2
 110:	3f 92       	push	r3
 112:	4f 92       	push	r4
 114:	5f 92       	push	r5
 116:	6f 92       	push	r6
 118:	7f 92       	push	r7
 11a:	8f 92       	push	r8
 11c:	9f 92       	push	r9
 11e:	af 92       	push	r10
 120:	bf 92       	push	r11
 122:	cf 92       	push	r12
 124:	df 92       	push	r13
 126:	ef 92       	push	r14
 128:	ff 92       	push	r15
 12a:	0f 93       	push	r16
 12c:	1f 93       	push	r17
 12e:	2f 93       	push	r18
 130:	3f 93       	push	r19
 132:	4f 93       	push	r20
 134:	5f 93       	push	r21
 136:	6f 93       	push	r22
 138:	7f 93       	push	r23
 13a:	8f 93       	push	r24
 13c:	9f 93       	push	r25
 13e:	af 93       	push	r26
 140:	bf 93       	push	r27
 142:	cf 93       	push	r28
 144:	df 93       	push	r29
 146:	ef 93       	push	r30
 148:	ff 93       	push	r31
 14a:	0c b7       	in	r16, 0x3c	; 60
 14c:	0f 93       	push	r16
 14e:	ff b7       	in	r31, 0x3f	; 63
 150:	ff 93       	push	r31
        /* 
          * Now, we have saved the kernel's context.
          * Save the current H/W stack pointer into KernelSp.
          */
        in   r30, SPL
 152:	ed b7       	in	r30, 0x3d	; 61
        in   r31, SPH
 154:	fe b7       	in	r31, 0x3e	; 62
		  in   r16, EIND
 156:	0c b7       	in	r16, 0x3c	; 60
        sts  KernelSp, r30
 158:	e0 93 82 0a 	sts	0x0A82, r30
        sts  KernelSp+1, r31
 15c:	f0 93 83 0a 	sts	0x0A83, r31

        /*
          * We are now ready to restore Cp's context, i.e.,
          * switching the H/W stack pointer to CurrentSp.
          */ 
        lds  r30, CurrentSp
 160:	e0 91 80 0a 	lds	r30, 0x0A80
        lds  r31, CurrentSp+1
 164:	f0 91 81 0a 	lds	r31, 0x0A81
        out  SPL, r30
 168:	ed bf       	out	0x3d, r30	; 61
        out  SPH, r31
 16a:	fe bf       	out	0x3e, r31	; 62
		  out  EIND, r16
 16c:	0c bf       	out	0x3c, r16	; 60
        /*
          * We are now executing in Cp's stack.
          * Note: at the bottom of the Cp's context is its return address.
          */
        RESTORECTX
 16e:	ff 91       	pop	r31
 170:	ff bf       	out	0x3f, r31	; 63
 172:	0f 91       	pop	r16
 174:	0c bf       	out	0x3c, r16	; 60
 176:	ff 91       	pop	r31
 178:	ef 91       	pop	r30
 17a:	df 91       	pop	r29
 17c:	cf 91       	pop	r28
 17e:	bf 91       	pop	r27
 180:	af 91       	pop	r26
 182:	9f 91       	pop	r25
 184:	8f 91       	pop	r24
 186:	7f 91       	pop	r23
 188:	6f 91       	pop	r22
 18a:	5f 91       	pop	r21
 18c:	4f 91       	pop	r20
 18e:	3f 91       	pop	r19
 190:	2f 91       	pop	r18
 192:	1f 91       	pop	r17
 194:	0f 91       	pop	r16
 196:	ff 90       	pop	r15
 198:	ef 90       	pop	r14
 19a:	df 90       	pop	r13
 19c:	cf 90       	pop	r12
 19e:	bf 90       	pop	r11
 1a0:	af 90       	pop	r10
 1a2:	9f 90       	pop	r9
 1a4:	8f 90       	pop	r8
 1a6:	7f 90       	pop	r7
 1a8:	6f 90       	pop	r6
 1aa:	5f 90       	pop	r5
 1ac:	4f 90       	pop	r4
 1ae:	3f 90       	pop	r3
 1b0:	2f 90       	pop	r2
 1b2:	1f 90       	pop	r1
 1b4:	0f 90       	pop	r0
        reti         /* re-enable all global interrupts */
 1b6:	18 95       	reti

000001b8 <Enter_Kernel>:
Enter_Kernel:   
        /*
          * This is the "bottom" half of CSwitch(). We are still executing in
          * Cp's context.
          */
        SAVECTX
 1b8:	0f 92       	push	r0
 1ba:	1f 92       	push	r1
 1bc:	2f 92       	push	r2
 1be:	3f 92       	push	r3
 1c0:	4f 92       	push	r4
 1c2:	5f 92       	push	r5
 1c4:	6f 92       	push	r6
 1c6:	7f 92       	push	r7
 1c8:	8f 92       	push	r8
 1ca:	9f 92       	push	r9
 1cc:	af 92       	push	r10
 1ce:	bf 92       	push	r11
 1d0:	cf 92       	push	r12
 1d2:	df 92       	push	r13
 1d4:	ef 92       	push	r14
 1d6:	ff 92       	push	r15
 1d8:	0f 93       	push	r16
 1da:	1f 93       	push	r17
 1dc:	2f 93       	push	r18
 1de:	3f 93       	push	r19
 1e0:	4f 93       	push	r20
 1e2:	5f 93       	push	r21
 1e4:	6f 93       	push	r22
 1e6:	7f 93       	push	r23
 1e8:	8f 93       	push	r24
 1ea:	9f 93       	push	r25
 1ec:	af 93       	push	r26
 1ee:	bf 93       	push	r27
 1f0:	cf 93       	push	r28
 1f2:	df 93       	push	r29
 1f4:	ef 93       	push	r30
 1f6:	ff 93       	push	r31
 1f8:	0c b7       	in	r16, 0x3c	; 60
 1fa:	0f 93       	push	r16
 1fc:	ff b7       	in	r31, 0x3f	; 63
 1fe:	ff 93       	push	r31
        /* 
          * Now, we have saved the Cp's context.
          * Save the current H/W stack pointer into CurrentSp.
          */
        in   r30, SPL
 200:	ed b7       	in	r30, 0x3d	; 61
        in   r31, SPH
 202:	fe b7       	in	r31, 0x3e	; 62
		  in   r16, EIND
 204:	0c b7       	in	r16, 0x3c	; 60
        sts  CurrentSp, r30
 206:	e0 93 80 0a 	sts	0x0A80, r30
        sts  CurrentSp+1, r31
 20a:	f0 93 81 0a 	sts	0x0A81, r31
        /*
          * We are now ready to restore kernel's context, i.e.,
          * switching the H/W stack pointer back to KernelSp.
          */ 
        lds  r30, KernelSp
 20e:	e0 91 82 0a 	lds	r30, 0x0A82
        lds  r31, KernelSp+1
 212:	f0 91 83 0a 	lds	r31, 0x0A83
        out  SPL, r30
 216:	ed bf       	out	0x3d, r30	; 61
        out  SPH, r31
 218:	fe bf       	out	0x3e, r31	; 62
		  out  EIND, r16
 21a:	0c bf       	out	0x3c, r16	; 60
        /*
          * We are now executing in kernel's stack.
          */
       RESTORECTX
 21c:	ff 91       	pop	r31
 21e:	ff bf       	out	0x3f, r31	; 63
 220:	0f 91       	pop	r16
 222:	0c bf       	out	0x3c, r16	; 60
 224:	ff 91       	pop	r31
 226:	ef 91       	pop	r30
 228:	df 91       	pop	r29
 22a:	cf 91       	pop	r28
 22c:	bf 91       	pop	r27
 22e:	af 91       	pop	r26
 230:	9f 91       	pop	r25
 232:	8f 91       	pop	r24
 234:	7f 91       	pop	r23
 236:	6f 91       	pop	r22
 238:	5f 91       	pop	r21
 23a:	4f 91       	pop	r20
 23c:	3f 91       	pop	r19
 23e:	2f 91       	pop	r18
 240:	1f 91       	pop	r17
 242:	0f 91       	pop	r16
 244:	ff 90       	pop	r15
 246:	ef 90       	pop	r14
 248:	df 90       	pop	r13
 24a:	cf 90       	pop	r12
 24c:	bf 90       	pop	r11
 24e:	af 90       	pop	r10
 250:	9f 90       	pop	r9
 252:	8f 90       	pop	r8
 254:	7f 90       	pop	r7
 256:	6f 90       	pop	r6
 258:	5f 90       	pop	r5
 25a:	4f 90       	pop	r4
 25c:	3f 90       	pop	r3
 25e:	2f 90       	pop	r2
 260:	1f 90       	pop	r1
 262:	0f 90       	pop	r0
        /* 
          * We are ready to return to the caller of CSwitch() (or Exit_Kernel()).
          * Note: We should NOT re-enable interrupts while kernel is running.
          *         Therefore, we use "ret", and not "reti".
          */
       ret
 264:	08 95       	ret

00000266 <Dispatch>:
       */
	  //find a ready task
	  //in 10 ready queues
	  
	  
   while(Process[NextP].state != READY) {
 266:	2f e0       	ldi	r18, 0x0F	; 15
 268:	31 e0       	ldi	r19, 0x01	; 1
 26a:	0b c0       	rjmp	.+22     	; 0x282 <Dispatch+0x1c>
      NextP = (NextP + 1) % MAXPROCESS;
 26c:	80 91 04 02 	lds	r24, 0x0204
 270:	90 91 05 02 	lds	r25, 0x0205
 274:	01 96       	adiw	r24, 0x01	; 1
 276:	87 70       	andi	r24, 0x07	; 7
 278:	99 27       	eor	r25, r25
 27a:	90 93 05 02 	sts	0x0205, r25
 27e:	80 93 04 02 	sts	0x0204, r24
       */
	  //find a ready task
	  //in 10 ready queues
	  
	  
   while(Process[NextP].state != READY) {
 282:	80 91 04 02 	lds	r24, 0x0204
 286:	90 91 05 02 	lds	r25, 0x0205
 28a:	82 9f       	mul	r24, r18
 28c:	f0 01       	movw	r30, r0
 28e:	83 9f       	mul	r24, r19
 290:	f0 0d       	add	r31, r0
 292:	92 9f       	mul	r25, r18
 294:	f0 0d       	add	r31, r0
 296:	11 24       	eor	r1, r1
 298:	e6 5f       	subi	r30, 0xF6	; 246
 29a:	fc 4f       	sbci	r31, 0xFC	; 252
 29c:	80 81       	ld	r24, Z
 29e:	81 30       	cpi	r24, 0x01	; 1
 2a0:	29 f7       	brne	.-54     	; 0x26c <Dispatch+0x6>
      NextP = (NextP + 1) % MAXPROCESS;
   }

   Cp = &(Process[NextP]);
 2a2:	20 91 04 02 	lds	r18, 0x0204
 2a6:	30 91 05 02 	lds	r19, 0x0205
 2aa:	8f e0       	ldi	r24, 0x0F	; 15
 2ac:	91 e0       	ldi	r25, 0x01	; 1
 2ae:	28 9f       	mul	r18, r24
 2b0:	f0 01       	movw	r30, r0
 2b2:	29 9f       	mul	r18, r25
 2b4:	f0 0d       	add	r31, r0
 2b6:	38 9f       	mul	r19, r24
 2b8:	f0 0d       	add	r31, r0
 2ba:	11 24       	eor	r1, r1
 2bc:	e8 5f       	subi	r30, 0xF8	; 248
 2be:	fd 4f       	sbci	r31, 0xFD	; 253
 2c0:	f0 93 07 02 	sts	0x0207, r31
 2c4:	e0 93 06 02 	sts	0x0206, r30
   CurrentSp = Cp->sp;
 2c8:	80 81       	ld	r24, Z
 2ca:	91 81       	ldd	r25, Z+1	; 0x01
 2cc:	90 93 81 0a 	sts	0x0A81, r25
 2d0:	80 93 80 0a 	sts	0x0A80, r24
   Cp->state = RUNNING;
 2d4:	ee 5f       	subi	r30, 0xFE	; 254
 2d6:	fe 4f       	sbci	r31, 0xFE	; 254
 2d8:	83 e0       	ldi	r24, 0x03	; 3
 2da:	80 83       	st	Z, r24

   NextP = (NextP + 1) % MAXPROCESS;
 2dc:	80 91 04 02 	lds	r24, 0x0204
 2e0:	90 91 05 02 	lds	r25, 0x0205
 2e4:	01 96       	adiw	r24, 0x01	; 1
 2e6:	87 70       	andi	r24, 0x07	; 7
 2e8:	99 27       	eor	r25, r25
 2ea:	90 93 05 02 	sts	0x0205, r25
 2ee:	80 93 04 02 	sts	0x0204, r24
	Enable_Interrupt();
 2f2:	78 94       	sei
 2f4:	08 95       	ret

000002f6 <Task_Terminate>:
/**
  * The calling task terminates itself.
  */
void Task_Terminate() 
{
   if (KernelActive) {
 2f6:	80 91 02 02 	lds	r24, 0x0202
 2fa:	90 91 03 02 	lds	r25, 0x0203
 2fe:	89 2b       	or	r24, r25
 300:	51 f0       	breq	.+20     	; 0x316 <Task_Terminate+0x20>
      Disable_Interrupt();
 302:	f8 94       	cli
      Cp -> request = TERMINATE;
 304:	e0 91 06 02 	lds	r30, 0x0206
 308:	f0 91 07 02 	lds	r31, 0x0207
 30c:	eb 5f       	subi	r30, 0xFB	; 251
 30e:	fe 4f       	sbci	r31, 0xFE	; 254
 310:	83 e0       	ldi	r24, 0x03	; 3
 312:	80 83       	st	Z, r24
      Enter_Kernel();
 314:	51 cf       	rjmp	.-350    	; 0x1b8 <Enter_Kernel>
 316:	08 95       	ret

00000318 <Kernel_Create_Task_At>:
 * it has called "Enter_Kernel()"; so that when we switch to it later, we
 * can just restore its execution context on its stack.
 * (See file "cswitch.S" for details.)
 */
void Kernel_Create_Task_At( PD *p, voidfuncptr f , PRIORITY py, int arg) 
{   
 318:	0f 93       	push	r16
 31a:	1f 93       	push	r17
 31c:	cf 93       	push	r28
 31e:	df 93       	push	r29

   /*----BEGIN of NEW CODE----*/
   //Initialize the workspace (i.e., stack) and PD here!

   //Clear the contents of the workspace
   memset(&(p->workSpace),0,WORKSPACE);
 320:	fc 01       	movw	r30, r24
 322:	32 96       	adiw	r30, 0x02	; 2
 324:	a0 e0       	ldi	r26, 0x00	; 0
 326:	b1 e0       	ldi	r27, 0x01	; 1
 328:	ef 01       	movw	r28, r30
 32a:	8d 01       	movw	r16, r26
 32c:	19 92       	st	Y+, r1
 32e:	01 50       	subi	r16, 0x01	; 1
 330:	10 40       	sbci	r17, 0x00	; 0
 332:	e1 f7       	brne	.-8      	; 0x32c <Kernel_Create_Task_At+0x14>
   //by most significant).  This is because the "return" assembly instructions 
   //(rtn and rti) pop addresses off in BIG ENDIAN (most sig. first, least sig. 
   //second), even though the AT90 is LITTLE ENDIAN machine.

   //Store terminate at the bottom of stack to protect against stack underrun.
   *(unsigned char *)sp-- = ((unsigned int)Task_Terminate) & 0xff;
 334:	dc 01       	movw	r26, r24
 336:	af 5f       	subi	r26, 0xFF	; 255
 338:	be 4f       	sbci	r27, 0xFE	; 254
 33a:	eb e7       	ldi	r30, 0x7B	; 123
 33c:	f1 e0       	ldi	r31, 0x01	; 1
 33e:	ec 93       	st	X, r30
   *(unsigned char *)sp-- = (((unsigned int)Task_Terminate) >> 8) & 0xff;
 340:	11 97       	sbiw	r26, 0x01	; 1
 342:	fc 93       	st	X, r31
	*(unsigned char *)sp-- = 0x00;
 344:	fc 01       	movw	r30, r24
 346:	e1 50       	subi	r30, 0x01	; 1
 348:	ff 4f       	sbci	r31, 0xFF	; 255
 34a:	10 82       	st	Z, r1

   //Place return address of function at bottom of stack
   *(unsigned char *)sp-- = ((unsigned int)f) & 0xff;
 34c:	31 97       	sbiw	r30, 0x01	; 1
 34e:	60 83       	st	Z, r22
   *(unsigned char *)sp-- = (((unsigned int)f) >> 8) & 0xff;
 350:	31 97       	sbiw	r30, 0x01	; 1
 352:	70 83       	st	Z, r23
	*(unsigned char *)sp-- = 0x00;
 354:	31 97       	sbiw	r30, 0x01	; 1
 356:	10 82       	st	Z, r1

	sp = sp - 34;
 358:	b3 97       	sbiw	r30, 0x23	; 35
   p->sp = sp;		/* stack pointer into the "workSpace" */
 35a:	dc 01       	movw	r26, r24
 35c:	ed 93       	st	X+, r30
 35e:	fc 93       	st	X, r31
   p->code = f;		/* function to be executed as a task */
 360:	ba 96       	adiw	r30, 0x2a	; 42
 362:	60 83       	st	Z, r22
 364:	71 83       	std	Z+1, r23	; 0x01
   p->request = NONE;
 366:	32 96       	adiw	r30, 0x02	; 2
 368:	10 82       	st	Z, r1
	p->arg= arg;
 36a:	36 96       	adiw	r30, 0x06	; 6
 36c:	31 83       	std	Z+1, r19	; 0x01
 36e:	20 83       	st	Z, r18
	p->priority=py;
 370:	33 97       	sbiw	r30, 0x03	; 3
 372:	40 83       	st	Z, r20
   /*----END of NEW CODE----*/
   p->state = READY;
 374:	36 97       	sbiw	r30, 0x06	; 6
 376:	81 e0       	ldi	r24, 0x01	; 1
 378:	80 83       	st	Z, r24


}
 37a:	df 91       	pop	r29
 37c:	cf 91       	pop	r28
 37e:	1f 91       	pop	r17
 380:	0f 91       	pop	r16
 382:	08 95       	ret

00000384 <Kernel_Create_Task>:

/**
  *  Create a new task
  */
static void Kernel_Create_Task( voidfuncptr f , PRIORITY py, int arg) 
{
 384:	cf 93       	push	r28
 386:	df 93       	push	r29
 388:	ec 01       	movw	r28, r24
   int x;

   if (Tasks == MAXPROCESS) return;  /* Too many task! */
 38a:	80 91 00 02 	lds	r24, 0x0200
 38e:	90 91 01 02 	lds	r25, 0x0201
 392:	08 97       	sbiw	r24, 0x08	; 8
 394:	61 f1       	breq	.+88     	; 0x3ee <Kernel_Create_Task+0x6a>

   /* find a DEAD PD that we can use  */
   for (x = 0; x < MAXPROCESS; x++) {
       if (Process[x].state == DEAD) break;
 396:	80 91 0a 03 	lds	r24, 0x030A
 39a:	88 23       	and	r24, r24
 39c:	71 f0       	breq	.+28     	; 0x3ba <Kernel_Create_Task+0x36>
 39e:	a9 e1       	ldi	r26, 0x19	; 25
 3a0:	b4 e0       	ldi	r27, 0x04	; 4
   int x;

   if (Tasks == MAXPROCESS) return;  /* Too many task! */

   /* find a DEAD PD that we can use  */
   for (x = 0; x < MAXPROCESS; x++) {
 3a2:	e1 e0       	ldi	r30, 0x01	; 1
 3a4:	f0 e0       	ldi	r31, 0x00	; 0
       if (Process[x].state == DEAD) break;
 3a6:	9c 91       	ld	r25, X
 3a8:	99 23       	and	r25, r25
 3aa:	49 f0       	breq	.+18     	; 0x3be <Kernel_Create_Task+0x3a>
   int x;

   if (Tasks == MAXPROCESS) return;  /* Too many task! */

   /* find a DEAD PD that we can use  */
   for (x = 0; x < MAXPROCESS; x++) {
 3ac:	31 96       	adiw	r30, 0x01	; 1
 3ae:	a1 5f       	subi	r26, 0xF1	; 241
 3b0:	be 4f       	sbci	r27, 0xFE	; 254
 3b2:	e8 30       	cpi	r30, 0x08	; 8
 3b4:	f1 05       	cpc	r31, r1
 3b6:	b9 f7       	brne	.-18     	; 0x3a6 <Kernel_Create_Task+0x22>
 3b8:	02 c0       	rjmp	.+4      	; 0x3be <Kernel_Create_Task+0x3a>
       if (Process[x].state == DEAD) break;
 3ba:	e0 e0       	ldi	r30, 0x00	; 0
 3bc:	f0 e0       	ldi	r31, 0x00	; 0
 3be:	9a 01       	movw	r18, r20
 3c0:	46 2f       	mov	r20, r22
 3c2:	be 01       	movw	r22, r28
   }

   ++Tasks;
 3c4:	80 91 00 02 	lds	r24, 0x0200
 3c8:	90 91 01 02 	lds	r25, 0x0201
 3cc:	01 96       	adiw	r24, 0x01	; 1
 3ce:	90 93 01 02 	sts	0x0201, r25
 3d2:	80 93 00 02 	sts	0x0200, r24
   Kernel_Create_Task_At( &(Process[x]), f ,py, arg);
 3d6:	af e0       	ldi	r26, 0x0F	; 15
 3d8:	b1 e0       	ldi	r27, 0x01	; 1
 3da:	ea 9f       	mul	r30, r26
 3dc:	c0 01       	movw	r24, r0
 3de:	eb 9f       	mul	r30, r27
 3e0:	90 0d       	add	r25, r0
 3e2:	fa 9f       	mul	r31, r26
 3e4:	90 0d       	add	r25, r0
 3e6:	11 24       	eor	r1, r1
 3e8:	88 5f       	subi	r24, 0xF8	; 248
 3ea:	9d 4f       	sbci	r25, 0xFD	; 253
 3ec:	95 df       	rcall	.-214    	; 0x318 <Kernel_Create_Task_At>

}
 3ee:	df 91       	pop	r29
 3f0:	cf 91       	pop	r28
 3f2:	08 95       	ret

000003f4 <set_timer>:
    } 
}

void set_timer()
{
	TCCR1A = 0;
 3f4:	10 92 80 00 	sts	0x0080, r1
	TCCR1B = 0;
 3f8:	e1 e8       	ldi	r30, 0x81	; 129
 3fa:	f0 e0       	ldi	r31, 0x00	; 0
 3fc:	10 82       	st	Z, r1
	//Set to CTC (mode 4)
	TCCR1B |= (1<<WGM32);
 3fe:	80 81       	ld	r24, Z
 400:	88 60       	ori	r24, 0x08	; 8
 402:	80 83       	st	Z, r24
	
	//Set prescaler /8
	TCCR1B |= (1<<CS31);
 404:	80 81       	ld	r24, Z
 406:	82 60       	ori	r24, 0x02	; 2
 408:	80 83       	st	Z, r24
	
	//Set TOP value (0.01 seconds)
	OCR1A = 20000;
 40a:	80 e2       	ldi	r24, 0x20	; 32
 40c:	9e e4       	ldi	r25, 0x4E	; 78
 40e:	90 93 89 00 	sts	0x0089, r25
 412:	80 93 88 00 	sts	0x0088, r24
	
	//Enable interupt A for timer 3.
	TIMSK1 |= (1<<OCIE1A);
 416:	ef e6       	ldi	r30, 0x6F	; 111
 418:	f0 e0       	ldi	r31, 0x00	; 0
 41a:	80 81       	ld	r24, Z
 41c:	82 60       	ori	r24, 0x02	; 2
 41e:	80 83       	st	Z, r24
 420:	08 95       	ret

00000422 <OS_Init>:
/**
  * This function initializes the RTOS and must be called before any other
  * system calls.
  */
void OS_Init() 
{
 422:	cf 93       	push	r28
 424:	df 93       	push	r29

	DDRA= (1<<PA0);
 426:	81 e0       	ldi	r24, 0x01	; 1
 428:	81 b9       	out	0x01, r24	; 1
	DDRA = (1<<PA1);
 42a:	82 e0       	ldi	r24, 0x02	; 2
 42c:	81 b9       	out	0x01, r24	; 1
	PORTA &= ~(1<<PA0);
 42e:	10 98       	cbi	0x02, 0	; 2
	PORTA &= ~(1<<PA1);
 430:	11 98       	cbi	0x02, 1	; 2
	
	
	set_timer();
 432:	e0 df       	rcall	.-64     	; 0x3f4 <set_timer>
	
   int x;

   Tasks = 0;
 434:	10 92 01 02 	sts	0x0201, r1
 438:	10 92 00 02 	sts	0x0200, r1
   KernelActive = 0;
 43c:	10 92 03 02 	sts	0x0203, r1
 440:	10 92 02 02 	sts	0x0202, r1
   NextP = 0;
 444:	10 92 05 02 	sts	0x0205, r1
 448:	10 92 04 02 	sts	0x0204, r1
 44c:	ea e0       	ldi	r30, 0x0A	; 10
 44e:	f3 e0       	ldi	r31, 0x03	; 3
 450:	42 e8       	ldi	r20, 0x82	; 130
 452:	5b e0       	ldi	r21, 0x0B	; 11
	//Reminder: Clear the memory for the task on creation.
   for (x = 0; x < MAXPROCESS; x++) {
      memset(&(Process[x]),0,sizeof(PD));
 454:	2f e0       	ldi	r18, 0x0F	; 15
 456:	31 e0       	ldi	r19, 0x01	; 1
 458:	df 01       	movw	r26, r30
 45a:	a2 50       	subi	r26, 0x02	; 2
 45c:	b1 40       	sbci	r27, 0x01	; 1
 45e:	ed 01       	movw	r28, r26
 460:	c9 01       	movw	r24, r18
 462:	19 92       	st	Y+, r1
 464:	01 97       	sbiw	r24, 0x01	; 1
 466:	e9 f7       	brne	.-6      	; 0x462 <OS_Init+0x40>
      Process[x].state = DEAD;
 468:	10 82       	st	Z, r1
 46a:	cf 01       	movw	r24, r30
 46c:	0d 96       	adiw	r24, 0x0d	; 13
		Process[x].next=&Process[x+1];
 46e:	94 87       	std	Z+12, r25	; 0x0c
 470:	83 87       	std	Z+11, r24	; 0x0b
 472:	e1 5f       	subi	r30, 0xF1	; 241
 474:	fe 4f       	sbci	r31, 0xFE	; 254

   Tasks = 0;
   KernelActive = 0;
   NextP = 0;
	//Reminder: Clear the memory for the task on creation.
   for (x = 0; x < MAXPROCESS; x++) {
 476:	e4 17       	cp	r30, r20
 478:	f5 07       	cpc	r31, r21
 47a:	71 f7       	brne	.-36     	; 0x458 <OS_Init+0x36>
      memset(&(Process[x]),0,sizeof(PD));
      Process[x].state = DEAD;
		Process[x].next=&Process[x+1];
   }

}
 47c:	df 91       	pop	r29
 47e:	cf 91       	pop	r28
 480:	08 95       	ret

00000482 <OS_Start>:

/**
  * This function starts the RTOS after creating a few tasks.
  */
void OS_Start() 
{   
 482:	cf 93       	push	r28
   if ( (! KernelActive) && (Tasks > 0)) {
 484:	80 91 02 02 	lds	r24, 0x0202
 488:	90 91 03 02 	lds	r25, 0x0203
 48c:	89 2b       	or	r24, r25
 48e:	09 f0       	breq	.+2      	; 0x492 <OS_Start+0x10>
 490:	45 c0       	rjmp	.+138    	; 0x51c <OS_Start+0x9a>
 492:	80 91 00 02 	lds	r24, 0x0200
 496:	90 91 01 02 	lds	r25, 0x0201
 49a:	89 2b       	or	r24, r25
 49c:	09 f4       	brne	.+2      	; 0x4a0 <OS_Start+0x1e>
 49e:	3e c0       	rjmp	.+124    	; 0x51c <OS_Start+0x9a>
       Disable_Interrupt();
 4a0:	f8 94       	cli
      /* we may have to initialize the interrupt vector for Enter_Kernel() here. */

      /* here we go...  */
      KernelActive = 1;
 4a2:	81 e0       	ldi	r24, 0x01	; 1
 4a4:	90 e0       	ldi	r25, 0x00	; 0
 4a6:	90 93 03 02 	sts	0x0203, r25
 4aa:	80 93 02 02 	sts	0x0202, r24
  *
  * This is the main loop of our kernel, called by OS_Start().
  */
static void Next_Kernel_Request() 
{
   Dispatch();  /* select a new task to run */
 4ae:	db de       	rcall	.-586    	; 0x266 <Dispatch>
       case CREATE:
           Kernel_Create_Task( Cp->code , Cp->priority, Cp->arg );
           break;
       case NEXT:
		 //Enqueue appropriately
		   Cp->state = READY;
 4b0:	c1 e0       	ldi	r28, 0x01	; 1
   Dispatch();  /* select a new task to run */

   while(1) {

       /* activate this newly selected task */
       CurrentSp = Cp->sp;
 4b2:	e0 91 06 02 	lds	r30, 0x0206
 4b6:	f0 91 07 02 	lds	r31, 0x0207
 4ba:	80 81       	ld	r24, Z
 4bc:	91 81       	ldd	r25, Z+1	; 0x01
 4be:	90 93 81 0a 	sts	0x0A81, r25
 4c2:	80 93 80 0a 	sts	0x0A80, r24
       Exit_Kernel();    /* or CSwitch() */
 4c6:	21 de       	rcall	.-958    	; 0x10a <CSwitch>

       /* if this task makes a system call, it will return to here! */

        /* save the Cp's stack pointer */
       Cp->sp = CurrentSp;
 4c8:	e0 91 06 02 	lds	r30, 0x0206
 4cc:	f0 91 07 02 	lds	r31, 0x0207
 4d0:	80 91 80 0a 	lds	r24, 0x0A80
 4d4:	90 91 81 0a 	lds	r25, 0x0A81
 4d8:	91 83       	std	Z+1, r25	; 0x01
 4da:	80 83       	st	Z, r24

       switch(Cp->request){
 4dc:	df 01       	movw	r26, r30
 4de:	ab 5f       	subi	r26, 0xFB	; 251
 4e0:	be 4f       	sbci	r27, 0xFE	; 254
 4e2:	8c 91       	ld	r24, X
 4e4:	82 30       	cpi	r24, 0x02	; 2
 4e6:	81 f0       	breq	.+32     	; 0x508 <OS_Start+0x86>
 4e8:	83 30       	cpi	r24, 0x03	; 3
 4ea:	99 f0       	breq	.+38     	; 0x512 <OS_Start+0x90>
 4ec:	81 30       	cpi	r24, 0x01	; 1
 4ee:	09 f7       	brne	.-62     	; 0x4b2 <OS_Start+0x30>
       case CREATE:
           Kernel_Create_Task( Cp->code , Cp->priority, Cp->arg );
 4f0:	16 96       	adiw	r26, 0x06	; 6
 4f2:	4d 91       	ld	r20, X+
 4f4:	5c 91       	ld	r21, X
 4f6:	11 97       	sbiw	r26, 0x01	; 1
 4f8:	13 97       	sbiw	r26, 0x03	; 3
 4fa:	6c 91       	ld	r22, X
 4fc:	ed 5f       	subi	r30, 0xFD	; 253
 4fe:	fe 4f       	sbci	r31, 0xFE	; 254
 500:	80 81       	ld	r24, Z
 502:	91 81       	ldd	r25, Z+1	; 0x01
 504:	3f df       	rcall	.-386    	; 0x384 <Kernel_Create_Task>
 506:	d5 cf       	rjmp	.-86     	; 0x4b2 <OS_Start+0x30>
           break;
       case NEXT:
		 //Enqueue appropriately
		   Cp->state = READY;
 508:	ee 5f       	subi	r30, 0xFE	; 254
 50a:	fe 4f       	sbci	r31, 0xFE	; 254
 50c:	c0 83       	st	Z, r28
			Dispatch();
 50e:	ab de       	rcall	.-682    	; 0x266 <Dispatch>
 510:	d0 cf       	rjmp	.-96     	; 0x4b2 <OS_Start+0x30>
	   case NONE:
	//shouldn't happen
          break;
       case TERMINATE:
          /* deallocate all resources used by this task */
          Cp->state = DEAD;
 512:	ee 5f       	subi	r30, 0xFE	; 254
 514:	fe 4f       	sbci	r31, 0xFE	; 254
 516:	10 82       	st	Z, r1
          Dispatch();
 518:	a6 de       	rcall	.-692    	; 0x266 <Dispatch>
 51a:	cb cf       	rjmp	.-106    	; 0x4b2 <OS_Start+0x30>
      /* here we go...  */
      KernelActive = 1;
      Next_Kernel_Request();
      /* NEVER RETURNS!!! */
   }
}
 51c:	cf 91       	pop	r28
 51e:	08 95       	ret

00000520 <Task_Create>:
  * each task gives up its share of the processor voluntarily by calling
  * Task_Next().
  */
PID Task_Create( voidfuncptr f, PRIORITY py, int arg)
{
   if (KernelActive ) {
 520:	20 91 02 02 	lds	r18, 0x0202
 524:	30 91 03 02 	lds	r19, 0x0203
 528:	23 2b       	or	r18, r19
 52a:	e1 f0       	breq	.+56     	; 0x564 <Task_Create+0x44>
     Disable_Interrupt();
 52c:	f8 94       	cli
     Cp ->request = CREATE;
 52e:	20 91 06 02 	lds	r18, 0x0206
 532:	30 91 07 02 	lds	r19, 0x0207
 536:	f9 01       	movw	r30, r18
 538:	eb 5f       	subi	r30, 0xFB	; 251
 53a:	fe 4f       	sbci	r31, 0xFE	; 254
 53c:	71 e0       	ldi	r23, 0x01	; 1
 53e:	70 83       	st	Z, r23
     Cp->code = f;
 540:	32 97       	sbiw	r30, 0x02	; 2
 542:	91 83       	std	Z+1, r25	; 0x01
 544:	80 83       	st	Z, r24
	  Cp->arg=arg;
 546:	38 96       	adiw	r30, 0x08	; 8
 548:	51 83       	std	Z+1, r21	; 0x01
 54a:	40 83       	st	Z, r20
	  Cp->priority=py;
 54c:	33 97       	sbiw	r30, 0x03	; 3
 54e:	60 83       	st	Z, r22
     Enter_Kernel();
 550:	33 de       	rcall	.-922    	; 0x1b8 <Enter_Kernel>
	  return Cp->pid;
 552:	e0 91 06 02 	lds	r30, 0x0206
 556:	f0 91 07 02 	lds	r31, 0x0207
 55a:	e7 5f       	subi	r30, 0xF7	; 247
 55c:	fe 4f       	sbci	r31, 0xFE	; 254
 55e:	80 81       	ld	r24, Z
 560:	91 81       	ldd	r25, Z+1	; 0x01
 562:	08 95       	ret
   } else { 
      /* call the RTOS function directly */
      Kernel_Create_Task( f,py,arg );
 564:	0f df       	rcall	.-482    	; 0x384 <Kernel_Create_Task>
		return Cp->pid;
 566:	e0 91 06 02 	lds	r30, 0x0206
 56a:	f0 91 07 02 	lds	r31, 0x0207
 56e:	e7 5f       	subi	r30, 0xF7	; 247
 570:	fe 4f       	sbci	r31, 0xFE	; 254
 572:	80 81       	ld	r24, Z
 574:	91 81       	ldd	r25, Z+1	; 0x01
   }
}
 576:	08 95       	ret

00000578 <Task_Next>:
/**
  * The calling task gives up its share of the processor voluntarily.
  */
void Task_Next() 
{
   if (KernelActive) {
 578:	80 91 02 02 	lds	r24, 0x0202
 57c:	90 91 03 02 	lds	r25, 0x0203
 580:	89 2b       	or	r24, r25
 582:	51 f0       	breq	.+20     	; 0x598 <Task_Next+0x20>
     Disable_Interrupt();
 584:	f8 94       	cli
     Cp ->request = NEXT;
 586:	e0 91 06 02 	lds	r30, 0x0206
 58a:	f0 91 07 02 	lds	r31, 0x0207
 58e:	eb 5f       	subi	r30, 0xFB	; 251
 590:	fe 4f       	sbci	r31, 0xFE	; 254
 592:	82 e0       	ldi	r24, 0x02	; 2
 594:	80 83       	st	Z, r24
     Enter_Kernel();
 596:	10 ce       	rjmp	.-992    	; 0x1b8 <Enter_Kernel>
 598:	08 95       	ret

0000059a <Ping>:
void Ping() 
{
	int x;
  for(;;){

	PORTA &= ~(1<<PA1);
 59a:	d0 e0       	ldi	r29, 0x00	; 0
 59c:	cd e7       	ldi	r28, 0x7D	; 125
 59e:	11 98       	cbi	0x02, 1	; 2
 5a0:	8d 2f       	mov	r24, r29
 5a2:	9c 2f       	mov	r25, r28
 5a4:	01 97       	sbiw	r24, 0x01	; 1
	for(x=0;x<32000;x++);
 5a6:	f1 f7       	brne	.-4      	; 0x5a4 <Ping+0xa>
 5a8:	8d 2f       	mov	r24, r29
 5aa:	9c 2f       	mov	r25, r28
 5ac:	01 97       	sbiw	r24, 0x01	; 1
	for(x=0;x<32000;x++);
 5ae:	f1 f7       	brne	.-4      	; 0x5ac <Ping+0x12>
 5b0:	8d 2f       	mov	r24, r29
 5b2:	9c 2f       	mov	r25, r28
 5b4:	01 97       	sbiw	r24, 0x01	; 1
	for(x=0;x<32000;x++);
 5b6:	f1 f7       	brne	.-4      	; 0x5b4 <Ping+0x1a>
 5b8:	8d 2f       	mov	r24, r29
 5ba:	9c 2f       	mov	r25, r28
 5bc:	01 97       	sbiw	r24, 0x01	; 1
	for(x=0;x<32000;x++);
 5be:	f1 f7       	brne	.-4      	; 0x5bc <Ping+0x22>
	Task_Next();
 5c0:	db df       	rcall	.-74     	; 0x578 <Task_Next>
  }
 5c2:	ed cf       	rjmp	.-38     	; 0x59e <Ping+0x4>

000005c4 <Pong>:
	int x;
  for(;;) {
	//LED on

	//LED off
	PORTA |= (1<<PA1); 
 5c4:	d0 e0       	ldi	r29, 0x00	; 0
 5c6:	cd e7       	ldi	r28, 0x7D	; 125
 5c8:	11 9a       	sbi	0x02, 1	; 2
 5ca:	8d 2f       	mov	r24, r29
 5cc:	9c 2f       	mov	r25, r28
 5ce:	01 97       	sbiw	r24, 0x01	; 1
		for(x=0;x<32000;x++);
 5d0:	f1 f7       	brne	.-4      	; 0x5ce <Pong+0xa>
 5d2:	8d 2f       	mov	r24, r29
 5d4:	9c 2f       	mov	r25, r28
 5d6:	01 97       	sbiw	r24, 0x01	; 1
		for(x=0;x<32000;x++);
 5d8:	f1 f7       	brne	.-4      	; 0x5d6 <Pong+0x12>
 5da:	8d 2f       	mov	r24, r29
 5dc:	9c 2f       	mov	r25, r28
 5de:	01 97       	sbiw	r24, 0x01	; 1
		for(x=0;x<32000;x++);
 5e0:	f1 f7       	brne	.-4      	; 0x5de <Pong+0x1a>
 5e2:	8d 2f       	mov	r24, r29
 5e4:	9c 2f       	mov	r25, r28
 5e6:	01 97       	sbiw	r24, 0x01	; 1
		for(x=0;x<32000;x++);
 5e8:	f1 f7       	brne	.-4      	; 0x5e6 <Pong+0x22>
	
	Task_Next();
 5ea:	c6 df       	rcall	.-116    	; 0x578 <Task_Next>
  }
 5ec:	ed cf       	rjmp	.-38     	; 0x5c8 <Pong+0x4>

000005ee <__vector_17>:
}


ISR(TIMER1_COMPA_vect)
{
 5ee:	1f 92       	push	r1
 5f0:	0f 92       	push	r0
 5f2:	0f b6       	in	r0, 0x3f	; 63
 5f4:	0f 92       	push	r0
 5f6:	11 24       	eor	r1, r1
	//sleep queue handling
}
 5f8:	0f 90       	pop	r0
 5fa:	0f be       	out	0x3f, r0	; 63
 5fc:	0f 90       	pop	r0
 5fe:	1f 90       	pop	r1
 600:	18 95       	reti

00000602 <main>:

int main() 
{
   OS_Init();
 602:	0f df       	rcall	.-482    	; 0x422 <OS_Init>
   Task_Create( Pong , 0, 0 );
 604:	40 e0       	ldi	r20, 0x00	; 0
 606:	50 e0       	ldi	r21, 0x00	; 0
 608:	60 e0       	ldi	r22, 0x00	; 0
 60a:	82 ee       	ldi	r24, 0xE2	; 226
 60c:	92 e0       	ldi	r25, 0x02	; 2
 60e:	88 df       	rcall	.-240    	; 0x520 <Task_Create>
   Task_Create( Ping, 0, 0 );
 610:	40 e0       	ldi	r20, 0x00	; 0
 612:	50 e0       	ldi	r21, 0x00	; 0
 614:	60 e0       	ldi	r22, 0x00	; 0
 616:	8d ec       	ldi	r24, 0xCD	; 205
 618:	92 e0       	ldi	r25, 0x02	; 2
 61a:	82 df       	rcall	.-252    	; 0x520 <Task_Create>
   OS_Start();
 61c:	32 df       	rcall	.-412    	; 0x482 <OS_Start>
}
 61e:	80 e0       	ldi	r24, 0x00	; 0
 620:	90 e0       	ldi	r25, 0x00	; 0
 622:	08 95       	ret

00000624 <_exit>:
 624:	f8 94       	cli

00000626 <__stop_program>:
 626:	ff cf       	rjmp	.-2      	; 0x626 <__stop_program>
